target datalayout = "e-m:e-p270:32:32-p271:32:32-p272:64:64-i64:64-i128:128-f80:128-n8:16:32:64-S128"
target triple = "x86_64-pc-linux-gnu"

%struct.st_str_end_key = type { ptr, ptr }

; Function Attrs: nounwind sspstrong uwtable
define dso_local i32 @onig_st_lookup_strend(ptr noundef %0, ptr noundef %1, ptr noundef %2, ptr noundef %3) #0 {
  %5 = alloca ptr, align 8
  %6 = alloca ptr, align 8
  %7 = alloca ptr, align 8
  %8 = alloca ptr, align 8
  %9 = alloca %struct.st_str_end_key, align 8
  store ptr %0, ptr %5, align 8, !tbaa !12
  store ptr %1, ptr %6, align 8, !tbaa !7
  store ptr %2, ptr %7, align 8, !tbaa !7
  store ptr %3, ptr %8, align 8, !tbaa !24
  call void @llvm.lifetime.start.p0(i64 16, ptr %9) #13
  %10 = load ptr, ptr %6, align 8, !tbaa !7
  %11 = getelementptr inbounds nuw %struct.st_str_end_key, ptr %9, i32 0, i32 0
  store ptr %10, ptr %11, align 8, !tbaa !20
  %12 = load ptr, ptr %7, align 8, !tbaa !7
  %13 = getelementptr inbounds nuw %struct.st_str_end_key, ptr %9, i32 0, i32 1
  store ptr %12, ptr %13, align 8, !tbaa !18
  %14 = load ptr, ptr %5, align 8, !tbaa !12
  %15 = ptrtoint ptr %9 to i64
  %16 = load ptr, ptr %8, align 8, !tbaa !24
  %17 = call i32 @rb_st_lookup(ptr noundef %14, i64 noundef %15, ptr noundef %16)
  call void @llvm.lifetime.end.p0(i64 16, ptr %9) #13
  ret i32 %17
}