; Function Attrs: nounwind sspstrong uwtable
define dso_local i32 @onig_st_lookup_strend(ptr noundef %0, ptr noundef %1, ptr noundef %2, ptr noundef %3) local_unnamed_addr #5 {
  %5 = alloca %struct.st_str_end_key, align 8
  call void @llvm.lifetime.start.p0(i64 16, ptr nonnull %5) #25
  store ptr %1, ptr %5, align 8, !tbaa !17
  %6 = getelementptr inbounds nuw i8, ptr %5, i64 8
  store ptr %2, ptr %6, align 8, !tbaa !14
  %7 = ptrtoint ptr %5 to i64
  %8 = call i32 @rb_st_lookup(ptr noundef %0, i64 noundef %7, ptr noundef %3) #25
  call void @llvm.lifetime.end.p0(i64 16, ptr nonnull %5) #25
  ret i32 %8
}